; Function Attrs: nounwind uwtable
define void @png_write_chunk_start(ptr noalias noundef %0, ptr noundef readonly captures(none) %1, i32 noundef %2) local_unnamed_addr #1 {
  %4 = alloca [8 x i8], align 1
  %5 = load i8, ptr %1, align 1, !tbaa !3
  %6 = getelementptr inbounds nuw i8, ptr %1, i64 1
  %7 = load i8, ptr %6, align 1, !tbaa !3
  %8 = getelementptr inbounds nuw i8, ptr %1, i64 2
  %9 = load i8, ptr %8, align 1, !tbaa !3
  %10 = getelementptr inbounds nuw i8, ptr %1, i64 3
  %11 = load i8, ptr %10, align 1, !tbaa !3
  tail call void @llvm.experimental.noalias.scope.decl(metadata !25)
  call void @llvm.lifetime.start.p0(i64 8, ptr nonnull %4) #12, !noalias !25
  %12 = icmp eq ptr %0, null
  br i1 %12, label %png_write_chunk_header.exit, label %13

13:                                               ; preds = %3
  %14 = zext i8 %5 to i32
  %15 = shl nuw i32 %14, 24
  %16 = zext i8 %7 to i32
  %17 = shl nuw nsw i32 %16, 16
  %18 = or disjoint i32 %17, %15
  %19 = zext i8 %9 to i32
  %20 = shl nuw nsw i32 %19, 8
  %21 = zext i8 %11 to i32
  %22 = or disjoint i32 %18, %20
  %23 = or disjoint i32 %22, %21
  %24 = getelementptr inbounds nuw i8, ptr %0, i64 1196
  store i32 34, ptr %24, align 4, !tbaa !6, !alias.scope !25
  %25 = lshr i32 %2, 24
  %26 = trunc nuw i32 %25 to i8
  store i8 %26, ptr %4, align 1, !tbaa !3, !noalias !25
  %27 = lshr i32 %2, 16
  %28 = trunc i32 %27 to i8
  %29 = getelementptr inbounds nuw i8, ptr %4, i64 1
  store i8 %28, ptr %29, align 1, !tbaa !3, !noalias !25
  %30 = lshr i32 %2, 8
  %31 = trunc i32 %30 to i8
  %32 = getelementptr inbounds nuw i8, ptr %4, i64 2
  store i8 %31, ptr %32, align 1, !tbaa !3, !noalias !25
  %33 = trunc i32 %2 to i8
  %34 = getelementptr inbounds nuw i8, ptr %4, i64 3
  store i8 %33, ptr %34, align 1, !tbaa !3, !noalias !25
  %35 = getelementptr inbounds nuw i8, ptr %4, i64 4
  store i8 %5, ptr %35, align 1, !tbaa !3, !noalias !25
  %36 = getelementptr inbounds nuw i8, ptr %4, i64 5
  store i8 %7, ptr %36, align 1, !tbaa !3, !noalias !25
  %37 = getelementptr inbounds nuw i8, ptr %4, i64 6
  store i8 %9, ptr %37, align 1, !tbaa !3, !noalias !25
  %38 = getelementptr inbounds nuw i8, ptr %4, i64 7
  store i8 %11, ptr %38, align 1, !tbaa !3, !noalias !25
  call void @png_write_data(ptr noundef nonnull %0, ptr noundef nonnull %4, i64 noundef 8) #12
  %39 = getelementptr inbounds nuw i8, ptr %0, i64 544
  store i32 %23, ptr %39, align 8, !tbaa !28, !alias.scope !25
  call void @png_reset_crc(ptr noundef nonnull %0) #12
  call void @png_calculate_crc(ptr noundef nonnull %0, ptr noundef nonnull %35, i64 noundef 4) #12
  store i32 66, ptr %24, align 4, !tbaa !6, !alias.scope !25
  br label %png_write_chunk_header.exit

png_write_chunk_header.exit:                      ; preds = %3, %13
  call void @llvm.lifetime.end.p0(i64 8, ptr nonnull %4) #12, !noalias !25
  ret void
}